; ModuleID = '60/741.c'
source_filename = "60/741.c"
target datalayout = "e-m:e-p270:32:32-p271:32:32-p272:64:64-i64:64-f80:128-n8:16:32:64-S128"
target triple = "x86_64-pc-linux-gnu"

@.str = private unnamed_addr constant [3 x i8] c"%d\00", align 1
@.str.1 = private unnamed_addr constant [7 x i8] c"%d %d\0A\00", align 1
@.str.2 = private unnamed_addr constant [6 x i8] c"empty\00", align 1

; Function Attrs: noinline nounwind uwtable
define dso_local i32 @main() #0 {
  %1 = alloca i32, align 4
  %2 = alloca i32, align 4
  %3 = alloca i32, align 4
  %4 = alloca i32, align 4
  store i32 0, i32* %1, align 4
  store i32 0, i32* %3, align 4
  %5 = call i32 (i8*, ...) @__isoc99_scanf(i8* getelementptr inbounds ([3 x i8], [3 x i8]* @.str, i64 0, i64 0), i32* %2)
  store i32 2, i32* %4, align 4
  br label %6

6:                                                ; preds = %38, %0
  %7 = load i32, i32* %4, align 4
  %8 = load i32, i32* %2, align 4
  %9 = sub nsw i32 %8, 1
  %10 = icmp slt i32 %7, %9
  br i1 %10, label %11, label %41

11:                                               ; preds = %6
  %12 = load i32, i32* %4, align 4
  %13 = call i32 @F(i32 %12)
  %14 = icmp ne i32 %13, 0
  br i1 %14, label %15, label %27

15:                                               ; preds = %11
  %16 = load i32, i32* %4, align 4
  %17 = add nsw i32 %16, 2
  %18 = call i32 @F(i32 %17)
  %19 = icmp ne i32 %18, 0
  br i1 %19, label %20, label %27

20:                                               ; preds = %15
  %21 = load i32, i32* %4, align 4
  %22 = load i32, i32* %4, align 4
  %23 = add nsw i32 %22, 2
  %24 = call i32 (i8*, ...) @printf(i8* getelementptr inbounds ([7 x i8], [7 x i8]* @.str.1, i64 0, i64 0), i32 %21, i32 %23)
  %25 = load i32, i32* %3, align 4
  %26 = add nsw i32 %25, 1
  store i32 %26, i32* %3, align 4
  br label %27

27:                                               ; preds = %20, %15, %11
  %28 = load i32, i32* %4, align 4
  %29 = load i32, i32* %2, align 4
  %30 = sub nsw i32 %29, 2
  %31 = icmp eq i32 %28, %30
  br i1 %31, label %32, label %37

32:                                               ; preds = %27
  %33 = load i32, i32* %3, align 4
  %34 = icmp eq i32 %33, 0
  br i1 %34, label %35, label %37

35:                                               ; preds = %32
  %36 = call i32 (i8*, ...) @printf(i8* getelementptr inbounds ([6 x i8], [6 x i8]* @.str.2, i64 0, i64 0))
  br label %37

37:                                               ; preds = %35, %32, %27
  br label %38

38:                                               ; preds = %37
  %39 = load i32, i32* %4, align 4
  %40 = add nsw i32 %39, 1
  store i32 %40, i32* %4, align 4
  br label %6

41:                                               ; preds = %6
  ret i32 0
}

declare dso_local i32 @__isoc99_scanf(i8*, ...) #1

; Function Attrs: noinline nounwind uwtable
define dso_local i32 @F(i32 %0) #0 {
  %2 = alloca i32, align 4
  %3 = alloca i32, align 4
  %4 = alloca i32, align 4
  store i32 %0, i32* %3, align 4
  store i32 2, i32* %4, align 4
  br label %5

5:                                                ; preds = %28, %1
  %6 = load i32, i32* %4, align 4
  %7 = load i32, i32* %3, align 4
  %8 = icmp slt i32 %6, %7
  br i1 %8, label %9, label %31

9:                                                ; preds = %5
  %10 = load i32, i32* %3, align 4
  %11 = load i32, i32* %4, align 4
  %12 = srem i32 %10, %11
  %13 = icmp eq i32 %12, 0
  br i1 %13, label %14, label %15

14:                                               ; preds = %9
  store i32 0, i32* %2, align 4
  br label %31

15:                                               ; preds = %9
  %16 = load i32, i32* %4, align 4
  %17 = load i32, i32* %3, align 4
  %18 = sub nsw i32 %17, 1
  %19 = icmp eq i32 %16, %18
  br i1 %19, label %20, label %26

20:                                               ; preds = %15
  %21 = load i32, i32* %3, align 4
  %22 = load i32, i32* %4, align 4
  %23 = srem i32 %21, %22
  %24 = icmp ne i32 %23, 0
  br i1 %24, label %25, label %26

25:                                               ; preds = %20
  store i32 1, i32* %2, align 4
  br label %31

26:                                               ; preds = %20, %15
  br label %27

27:                                               ; preds = %26
  br label %28

28:                                               ; preds = %27
  %29 = load i32, i32* %4, align 4
  %30 = add nsw i32 %29, 1
  store i32 %30, i32* %4, align 4
  br label %5

31:                                               ; preds = %14, %25, %5
  %32 = load i32, i32* %2, align 4
  ret i32 %32
}

declare dso_local i32 @printf(i8*, ...) #1


!llvm.module.flags = !{!0}
!llvm.ident = !{!1}

!0 = !{i32 1, !"wchar_size", i32 4}
!1 = !{!"clang version 10.0.0-4ubuntu1 "}
